; Function Attrs: mustprogress uwtable
define void @_ZN32pxrInternal_v0_24__pxrReserved__30UsdImagingDataSourceVolumePrim8GetNamesEv(ptr dead_on_unwind noalias writable sret(%"class.std::vector") align 8 %0, ptr noundef nonnull align 8 dereferenceable(56) %1) unnamed_addr #0 align 2 personality ptr @__gxx_personality_v0 {
  tail call void @_ZN32pxrInternal_v0_24__pxrReserved__24UsdImagingDataSourcePrim8GetNamesEv(ptr dead_on_unwind writable sret(%"class.std::vector") align 8 %0, ptr noundef nonnull align 8 dereferenceable(56) %1)
  %3 = invoke noundef nonnull align 8 dereferenceable(8) ptr @_ZN32pxrInternal_v0_24__pxrReserved__26HdVolumeFieldBindingSchema14GetSchemaTokenEv()
          to label %4 unwind label %25

4:                                                ; preds = %2
  %5 = getelementptr inbounds nuw i8, ptr %0, i64 8
  %6 = load ptr, ptr %5, align 8
  %7 = getelementptr inbounds nuw i8, ptr %0, i64 16
  %8 = load ptr, ptr %7, align 8
  %.not.i = icmp eq ptr %6, %8
  br i1 %.not.i, label %24, label %9

9:                                                ; preds = %4
  %10 = load i64, ptr %3, align 8
  store i64 %10, ptr %6, align 8
  %11 = and i64 %10, 7
  %.not.i.i.i.i.i = icmp eq i64 %11, 0
  br i1 %.not.i.i.i.i.i, label %_ZNSt16allocator_traitsISaIN32pxrInternal_v0_24__pxrReserved__7TfTokenEEE9constructIS1_JRKS1_EEEvRS2_PT_DpOT0_.exit.i, label %12

12:                                               ; preds = %9
  %13 = and i64 %10, -8
  %14 = inttoptr i64 %13 to ptr
  %15 = atomicrmw add ptr %14, i32 2 monotonic, align 4
  %16 = and i32 %15, 1
  %.not1.i.i.i.i.i = icmp eq i32 %16, 0
  br i1 %.not1.i.i.i.i.i, label %17, label %_ZNSt16allocator_traitsISaIN32pxrInternal_v0_24__pxrReserved__7TfTokenEEE9constructIS1_JRKS1_EEEvRS2_PT_DpOT0_.exit.i

17:                                               ; preds = %12
  %18 = load ptr, ptr %6, align 8
  %19 = ptrtoint ptr %18 to i64
  %20 = and i64 %19, -8
  %21 = inttoptr i64 %20 to ptr
  store ptr %21, ptr %6, align 8
  br label %_ZNSt16allocator_traitsISaIN32pxrInternal_v0_24__pxrReserved__7TfTokenEEE9constructIS1_JRKS1_EEEvRS2_PT_DpOT0_.exit.i

_ZNSt16allocator_traitsISaIN32pxrInternal_v0_24__pxrReserved__7TfTokenEEE9constructIS1_JRKS1_EEEvRS2_PT_DpOT0_.exit.i: ; preds = %17, %12, %9
  %22 = load ptr, ptr %5, align 8
  %23 = getelementptr inbounds i8, ptr %22, i64 8
  store ptr %23, ptr %5, align 8
  br label %_ZNSt6vectorIN32pxrInternal_v0_24__pxrReserved__7TfTokenESaIS1_EE9push_backERKS1_.exit

24:                                               ; preds = %4
  invoke void @_ZNSt6vectorIN32pxrInternal_v0_24__pxrReserved__7TfTokenESaIS1_EE17_M_realloc_insertIJRKS1_EEEvN9__gnu_cxx17__normal_iteratorIPS1_S3_EEDpOT_(ptr noundef nonnull align 8 dereferenceable(24) %0, ptr %6, ptr noundef nonnull align 8 dereferenceable(8) %3)
          to label %_ZNSt6vectorIN32pxrInternal_v0_24__pxrReserved__7TfTokenESaIS1_EE9push_backERKS1_.exit unwind label %25

25:                                               ; preds = %24, %2
  %26 = landingpad { ptr, i32 }
          cleanup
  tail call void @_ZNSt6vectorIN32pxrInternal_v0_24__pxrReserved__7TfTokenESaIS1_EED2Ev(ptr noundef nonnull align 8 dereferenceable(24) %0) #17
  resume { ptr, i32 } %26

_ZNSt6vectorIN32pxrInternal_v0_24__pxrReserved__7TfTokenESaIS1_EE9push_backERKS1_.exit: ; preds = %_ZNSt16allocator_traitsISaIN32pxrInternal_v0_24__pxrReserved__7TfTokenEEE9constructIS1_JRKS1_EEEvRS2_PT_DpOT0_.exit.i, %24
  ret void
}